target datalayout = "e-m:e-p270:32:32-p271:32:32-p272:64:64-i64:64-i128:128-f80:128-n8:16:32:64-S128"
target triple = "x86_64-pc-linux-gnu"

%struct.cavs_vector = type { i16, i16, i16, i16 }
%struct.AVSContext = type { ptr, %struct.BlockDSPContext, %struct.H264ChromaContext, %struct.VideoDSPContext, %struct.CAVSDSPContext, %struct.GetBitContext, %struct.AVSFrame, [2 x %struct.AVSFrame], [2 x i32], i32, i32, i32, i32, i32, i32, i32, i32, i32, i32, i32, i32, i32, i32, i32, i32, i32, i32, i32, i32, i32, ptr, ptr, ptr, i32, ptr, [24 x %struct.cavs_vector], [2 x ptr], ptr, [9 x i32], ptr, i64, i64, [4 x i32], i32, i32, i32, i32, [64 x i8], ptr, ptr, ptr, [26 x i8], [10 x i8], [10 x i8], [26 x i8], i8, i8, i8, [8 x ptr], [7 x ptr], ptr, i32, [2 x i32], [2 x i32], ptr, i32, ptr }
%struct.BlockDSPContext = type { ptr, ptr, [2 x ptr] }
%struct.H264ChromaContext = type { [4 x ptr], [4 x ptr] }
%struct.VideoDSPContext = type { ptr, ptr }
%struct.CAVSDSPContext = type { [2 x [16 x ptr]], [2 x [16 x ptr]], ptr, ptr, ptr, ptr, ptr, i32 }
%struct.GetBitContext = type { ptr, ptr, i32, i32, i32 }
%struct.AVSFrame = type { ptr, i32 }

@un_mv = internal constant %struct.cavs_vector { i16 0, i16 0, i16 1, i16 -1 }, align 2

; Function Attrs: nounwind uwtable
define void @ff_cavs_init_mb(ptr noundef %0) #0 {
  %2 = alloca ptr, align 8
  %3 = alloca i32, align 4
  store ptr %0, ptr %2, align 8, !tbaa !4
  call void @llvm.lifetime.start.p0(i64 4, ptr %3) #10
  store i32 0, ptr %3, align 4, !tbaa !9
  br label %4

4:                                                ; preds = %44, %1
  %5 = load i32, ptr %3, align 4, !tbaa !9
  %6 = icmp slt i32 %5, 3
  br i1 %6, label %7, label %47

7:                                                ; preds = %4
  %8 = load ptr, ptr %2, align 8, !tbaa !4
  %9 = getelementptr inbounds nuw %struct.AVSContext, ptr %8, i32 0, i32 35
  %10 = load i32, ptr %3, align 4, !tbaa !9
  %11 = add nsw i32 1, %10
  %12 = sext i32 %11 to i64
  %13 = getelementptr inbounds [24 x %struct.cavs_vector], ptr %9, i64 0, i64 %12
  %14 = load ptr, ptr %2, align 8, !tbaa !4
  %15 = getelementptr inbounds nuw %struct.AVSContext, ptr %14, i32 0, i32 36
  %16 = getelementptr inbounds [2 x ptr], ptr %15, i64 0, i64 0
  %17 = load ptr, ptr %16, align 8, !tbaa !51
  %18 = load ptr, ptr %2, align 8, !tbaa !4
  %19 = getelementptr inbounds nuw %struct.AVSContext, ptr %18, i32 0, i32 25
  %20 = load i32, ptr %19, align 8, !tbaa !26
  %21 = mul nsw i32 %20, 2
  %22 = load i32, ptr %3, align 4, !tbaa !9
  %23 = add nsw i32 %21, %22
  %24 = sext i32 %23 to i64
  %25 = getelementptr inbounds %struct.cavs_vector, ptr %17, i64 %24
  call void @llvm.memcpy.p0.p0.i64(ptr align 8 %13, ptr align 2 %25, i64 8, i1 false), !tbaa.struct !77
  %26 = load ptr, ptr %2, align 8, !tbaa !4
  %27 = getelementptr inbounds nuw %struct.AVSContext, ptr %26, i32 0, i32 35
  %28 = load i32, ptr %3, align 4, !tbaa !9
  %29 = add nsw i32 13, %28
  %30 = sext i32 %29 to i64
  %31 = getelementptr inbounds [24 x %struct.cavs_vector], ptr %27, i64 0, i64 %30
  %32 = load ptr, ptr %2, align 8, !tbaa !4
  %33 = getelementptr inbounds nuw %struct.AVSContext, ptr %32, i32 0, i32 36
  %34 = getelementptr inbounds [2 x ptr], ptr %33, i64 0, i64 1
  %35 = load ptr, ptr %34, align 8, !tbaa !51
  %36 = load ptr, ptr %2, align 8, !tbaa !4
  %37 = getelementptr inbounds nuw %struct.AVSContext, ptr %36, i32 0, i32 25
  %38 = load i32, ptr %37, align 8, !tbaa !26
  %39 = mul nsw i32 %38, 2
  %40 = load i32, ptr %3, align 4, !tbaa !9
  %41 = add nsw i32 %39, %40
  %42 = sext i32 %41 to i64
  %43 = getelementptr inbounds %struct.cavs_vector, ptr %35, i64 %42
  call void @llvm.memcpy.p0.p0.i64(ptr align 8 %31, ptr align 2 %43, i64 8, i1 false), !tbaa.struct !77
  br label %44

44:                                               ; preds = %7
  %45 = load i32, ptr %3, align 4, !tbaa !9
  %46 = add nsw i32 %45, 1
  store i32 %46, ptr %3, align 4, !tbaa !9
  br label %4, !llvm.loop !79

47:                                               ; preds = %4
  %48 = load ptr, ptr %2, align 8, !tbaa !4
  %49 = getelementptr inbounds nuw %struct.AVSContext, ptr %48, i32 0, i32 39
  %50 = load ptr, ptr %49, align 8, !tbaa !64
  %51 = load ptr, ptr %2, align 8, !tbaa !4
  %52 = getelementptr inbounds nuw %struct.AVSContext, ptr %51, i32 0, i32 25
  %53 = load i32, ptr %52, align 8, !tbaa !26
  %54 = mul nsw i32 %53, 2
  %55 = add nsw i32 %54, 0
  %56 = sext i32 %55 to i64
  %57 = getelementptr inbounds i32, ptr %50, i64 %56
  %58 = load i32, ptr %57, align 4, !tbaa !9
  %59 = load ptr, ptr %2, align 8, !tbaa !4
  %60 = getelementptr inbounds nuw %struct.AVSContext, ptr %59, i32 0, i32 38
  %61 = getelementptr inbounds [9 x i32], ptr %60, i64 0, i64 1
  store i32 %58, ptr %61, align 4, !tbaa !9
  %62 = load ptr, ptr %2, align 8, !tbaa !4
  %63 = getelementptr inbounds nuw %struct.AVSContext, ptr %62, i32 0, i32 39
  %64 = load ptr, ptr %63, align 8, !tbaa !64
  %65 = load ptr, ptr %2, align 8, !tbaa !4
  %66 = getelementptr inbounds nuw %struct.AVSContext, ptr %65, i32 0, i32 25
  %67 = load i32, ptr %66, align 8, !tbaa !26
  %68 = mul nsw i32 %67, 2
  %69 = add nsw i32 %68, 1
  %70 = sext i32 %69 to i64
  %71 = getelementptr inbounds i32, ptr %64, i64 %70
  %72 = load i32, ptr %71, align 4, !tbaa !9
  %73 = load ptr, ptr %2, align 8, !tbaa !4
  %74 = getelementptr inbounds nuw %struct.AVSContext, ptr %73, i32 0, i32 38
  %75 = getelementptr inbounds [9 x i32], ptr %74, i64 0, i64 2
  store i32 %72, ptr %75, align 8, !tbaa !9
  %76 = load ptr, ptr %2, align 8, !tbaa !4
  %77 = getelementptr inbounds nuw %struct.AVSContext, ptr %76, i32 0, i32 28
  %78 = load i32, ptr %77, align 4, !tbaa !41
  %79 = and i32 %78, 2
  %80 = icmp ne i32 %79, 0
  br i1 %80, label %104, label %81

81:                                               ; preds = %47
  %82 = load ptr, ptr %2, align 8, !tbaa !4
  %83 = getelementptr inbounds nuw %struct.AVSContext, ptr %82, i32 0, i32 35
  %84 = getelementptr inbounds [24 x %struct.cavs_vector], ptr %83, i64 0, i64 1
  call void @llvm.memcpy.p0.p0.i64(ptr align 8 %84, ptr align 2 @un_mv, i64 8, i1 false), !tbaa.struct !77
  %85 = load ptr, ptr %2, align 8, !tbaa !4
  %86 = getelementptr inbounds nuw %struct.AVSContext, ptr %85, i32 0, i32 35
  %87 = getelementptr inbounds [24 x %struct.cavs_vector], ptr %86, i64 0, i64 2
  call void @llvm.memcpy.p0.p0.i64(ptr align 8 %87, ptr align 2 @un_mv, i64 8, i1 false), !tbaa.struct !77
  %88 = load ptr, ptr %2, align 8, !tbaa !4
  %89 = getelementptr inbounds nuw %struct.AVSContext, ptr %88, i32 0, i32 35
  %90 = getelementptr inbounds [24 x %struct.cavs_vector], ptr %89, i64 0, i64 13
  call void @llvm.memcpy.p0.p0.i64(ptr align 8 %90, ptr align 2 @un_mv, i64 8, i1 false), !tbaa.struct !77
  %91 = load ptr, ptr %2, align 8, !tbaa !4
  %92 = getelementptr inbounds nuw %struct.AVSContext, ptr %91, i32 0, i32 35
  %93 = getelementptr inbounds [24 x %struct.cavs_vector], ptr %92, i64 0, i64 14
  call void @llvm.memcpy.p0.p0.i64(ptr align 8 %93, ptr align 2 @un_mv, i64 8, i1 false), !tbaa.struct !77
  %94 = load ptr, ptr %2, align 8, !tbaa !4
  %95 = getelementptr inbounds nuw %struct.AVSContext, ptr %94, i32 0, i32 38
  %96 = getelementptr inbounds [9 x i32], ptr %95, i64 0, i64 2
  store i32 -1, ptr %96, align 8, !tbaa !9
  %97 = load ptr, ptr %2, align 8, !tbaa !4
  %98 = getelementptr inbounds nuw %struct.AVSContext, ptr %97, i32 0, i32 38
  %99 = getelementptr inbounds [9 x i32], ptr %98, i64 0, i64 1
  store i32 -1, ptr %99, align 4, !tbaa !9
  %100 = load ptr, ptr %2, align 8, !tbaa !4
  %101 = getelementptr inbounds nuw %struct.AVSContext, ptr %100, i32 0, i32 28
  %102 = load i32, ptr %101, align 4, !tbaa !41
  %103 = and i32 %102, -13
  store i32 %103, ptr %101, align 4, !tbaa !41
  br label %115

104:                                              ; preds = %47
  %105 = load ptr, ptr %2, align 8, !tbaa !4
  %106 = getelementptr inbounds nuw %struct.AVSContext, ptr %105, i32 0, i32 25
  %107 = load i32, ptr %106, align 8, !tbaa !26
  %108 = icmp ne i32 %107, 0
  br i1 %108, label %109, label %114

109:                                              ; preds = %104
  %110 = load ptr, ptr %2, align 8, !tbaa !4
  %111 = getelementptr inbounds nuw %struct.AVSContext, ptr %110, i32 0, i32 28
  %112 = load i32, ptr %111, align 4, !tbaa !41
  %113 = or i32 %112, 8
  store i32 %113, ptr %111, align 4, !tbaa !41
  br label %114

114:                                              ; preds = %109, %104
  br label %115

115:                                              ; preds = %114, %81
  %116 = load ptr, ptr %2, align 8, !tbaa !4
  %117 = getelementptr inbounds nuw %struct.AVSContext, ptr %116, i32 0, i32 25
  %118 = load i32, ptr %117, align 8, !tbaa !26
  %119 = load ptr, ptr %2, align 8, !tbaa !4
  %120 = getelementptr inbounds nuw %struct.AVSContext, ptr %119, i32 0, i32 13
  %121 = load i32, ptr %120, align 8, !tbaa !80
  %122 = sub nsw i32 %121, 1
  %123 = icmp eq i32 %118, %122
  br i1 %123, label %124, label %129

124:                                              ; preds = %115
  %125 = load ptr, ptr %2, align 8, !tbaa !4
  %126 = getelementptr inbounds nuw %struct.AVSContext, ptr %125, i32 0, i32 28
  %127 = load i32, ptr %126, align 4, !tbaa !41
  %128 = and i32 %127, -5
  store i32 %128, ptr %126, align 4, !tbaa !41
  br label %129

129:                                              ; preds = %124, %115
  %130 = load ptr, ptr %2, align 8, !tbaa !4
  %131 = getelementptr inbounds nuw %struct.AVSContext, ptr %130, i32 0, i32 28
  %132 = load i32, ptr %131, align 4, !tbaa !41
  %133 = and i32 %132, 4
  %134 = icmp ne i32 %133, 0
  br i1 %134, label %142, label %135

135:                                              ; preds = %129
  %136 = load ptr, ptr %2, align 8, !tbaa !4
  %137 = getelementptr inbounds nuw %struct.AVSContext, ptr %136, i32 0, i32 35
  %138 = getelementptr inbounds [24 x %struct.cavs_vector], ptr %137, i64 0, i64 3
  call void @llvm.memcpy.p0.p0.i64(ptr align 8 %138, ptr align 2 @un_mv, i64 8, i1 false), !tbaa.struct !77
  %139 = load ptr, ptr %2, align 8, !tbaa !4
  %140 = getelementptr inbounds nuw %struct.AVSContext, ptr %139, i32 0, i32 35
  %141 = getelementptr inbounds [24 x %struct.cavs_vector], ptr %140, i64 0, i64 15
  call void @llvm.memcpy.p0.p0.i64(ptr align 8 %141, ptr align 2 @un_mv, i64 8, i1 false), !tbaa.struct !77
  br label %142

142:                                              ; preds = %135, %129
  %143 = load ptr, ptr %2, align 8, !tbaa !4
  %144 = getelementptr inbounds nuw %struct.AVSContext, ptr %143, i32 0, i32 28
  %145 = load i32, ptr %144, align 4, !tbaa !41
  %146 = and i32 %145, 8
  %147 = icmp ne i32 %146, 0
  br i1 %147, label %155, label %148

148:                                              ; preds = %142
  %149 = load ptr, ptr %2, align 8, !tbaa !4
  %150 = getelementptr inbounds nuw %struct.AVSContext, ptr %149, i32 0, i32 35
  %151 = getelementptr inbounds [24 x %struct.cavs_vector], ptr %150, i64 0, i64 0
  call void @llvm.memcpy.p0.p0.i64(ptr align 8 %151, ptr align 2 @un_mv, i64 8, i1 false), !tbaa.struct !77
  %152 = load ptr, ptr %2, align 8, !tbaa !4
  %153 = getelementptr inbounds nuw %struct.AVSContext, ptr %152, i32 0, i32 35
  %154 = getelementptr inbounds [24 x %struct.cavs_vector], ptr %153, i64 0, i64 12
  call void @llvm.memcpy.p0.p0.i64(ptr align 8 %154, ptr align 2 @un_mv, i64 8, i1 false), !tbaa.struct !77
  br label %155

155:                                              ; preds = %148, %142
  call void @llvm.lifetime.end.p0(i64 4, ptr %3) #10
  ret void
}