; Function Attrs: nofree norecurse nosync nounwind memory(read, argmem: readwrite, inaccessiblemem: none) uwtable
define void @ff_cavs_init_mb(ptr noundef captures(none) %0) local_unnamed_addr #7 {
  %2 = getelementptr inbounds nuw i8, ptr %0, i64 896
  %3 = getelementptr inbounds nuw i8, ptr %0, i64 1088
  %4 = getelementptr inbounds nuw i8, ptr %0, i64 832
  %5 = load i32, ptr %4, align 8, !tbaa !23
  %6 = shl nsw i32 %5, 1
  %7 = getelementptr inbounds nuw i8, ptr %0, i64 1096
  %8 = sext i32 %6 to i64
  br label %9

9:                                                ; preds = %1, %9
  %indvars.iv = phi i64 [ 0, %1 ], [ %indvars.iv.next, %9 ]
  %indvars.iv.next = add nuw nsw i64 %indvars.iv, 1
  %10 = getelementptr inbounds nuw [24 x %struct.cavs_vector], ptr %2, i64 0, i64 %indvars.iv.next
  %11 = load ptr, ptr %3, align 8, !tbaa !66
  %12 = add nsw i64 %indvars.iv, %8
  %13 = getelementptr inbounds %struct.cavs_vector, ptr %11, i64 %12
  %14 = load i64, ptr %13, align 2
  store i64 %14, ptr %10, align 8
  %15 = add nuw nsw i64 %indvars.iv, 13
  %16 = getelementptr inbounds nuw [24 x %struct.cavs_vector], ptr %2, i64 0, i64 %15
  %17 = load ptr, ptr %7, align 8, !tbaa !66
  %18 = getelementptr inbounds %struct.cavs_vector, ptr %17, i64 %12
  %19 = load i64, ptr %18, align 2
  store i64 %19, ptr %16, align 8
  %exitcond.not = icmp eq i64 %indvars.iv.next, 3
  br i1 %exitcond.not, label %20, label %9, !llvm.loop !67

20:                                               ; preds = %9
  %21 = getelementptr inbounds nuw i8, ptr %0, i64 1152
  %22 = load ptr, ptr %21, align 8, !tbaa !57
  %23 = getelementptr inbounds i32, ptr %22, i64 %8
  %24 = load i32, ptr %23, align 4, !tbaa !56
  %25 = getelementptr inbounds nuw i8, ptr %0, i64 1116
  store i32 %24, ptr %25, align 4, !tbaa !56
  %26 = getelementptr i8, ptr %23, i64 4
  %27 = load i32, ptr %26, align 4, !tbaa !56
  %28 = getelementptr inbounds nuw i8, ptr %0, i64 1120
  store i32 %27, ptr %28, align 8, !tbaa !56
  %29 = getelementptr inbounds nuw i8, ptr %0, i64 844
  %30 = load i32, ptr %29, align 4, !tbaa !43
  %31 = and i32 %30, 2
  %.not = icmp eq i32 %31, 0
  br i1 %.not, label %32, label %38

32:                                               ; preds = %20
  %33 = getelementptr inbounds nuw i8, ptr %0, i64 904
  store i64 -281470681743360, ptr %33, align 8
  %34 = getelementptr inbounds nuw i8, ptr %0, i64 912
  store i64 -281470681743360, ptr %34, align 8
  %35 = getelementptr inbounds nuw i8, ptr %0, i64 1000
  store i64 -281470681743360, ptr %35, align 8
  %36 = getelementptr inbounds nuw i8, ptr %0, i64 1008
  store i64 -281470681743360, ptr %36, align 8
  store i32 -1, ptr %28, align 8, !tbaa !56
  store i32 -1, ptr %25, align 4, !tbaa !56
  %37 = and i32 %30, -15
  br label %.sink.split

38:                                               ; preds = %20
  %.not36 = icmp eq i32 %5, 0
  br i1 %.not36, label %41, label %39

39:                                               ; preds = %38
  %40 = or i32 %30, 8
  br label %.sink.split

.sink.split:                                      ; preds = %32, %39
  %.sink = phi i32 [ %40, %39 ], [ %37, %32 ]
  store i32 %.sink, ptr %29, align 4, !tbaa !43
  br label %41

41:                                               ; preds = %.sink.split, %38
  %42 = phi i32 [ %30, %38 ], [ %.sink, %.sink.split ]
  %43 = getelementptr inbounds nuw i8, ptr %0, i64 784
  %44 = load i32, ptr %43, align 8, !tbaa !68
  %45 = add nsw i32 %44, -1
  %46 = icmp eq i32 %5, %45
  br i1 %46, label %47, label %49

47:                                               ; preds = %41
  %48 = and i32 %42, -5
  store i32 %48, ptr %29, align 4, !tbaa !43
  br label %49

49:                                               ; preds = %47, %41
  %50 = phi i32 [ %48, %47 ], [ %42, %41 ]
  %51 = and i32 %50, 4
  %.not37 = icmp eq i32 %51, 0
  br i1 %.not37, label %52, label %55

52:                                               ; preds = %49
  %53 = getelementptr inbounds nuw i8, ptr %0, i64 920
  store i64 -281470681743360, ptr %53, align 8
  %54 = getelementptr inbounds nuw i8, ptr %0, i64 1016
  store i64 -281470681743360, ptr %54, align 8
  br label %55

55:                                               ; preds = %52, %49
  %56 = and i32 %50, 8
  %.not38 = icmp eq i32 %56, 0
  br i1 %.not38, label %57, label %59

57:                                               ; preds = %55
  store i64 -281470681743360, ptr %2, align 8
  %58 = getelementptr inbounds nuw i8, ptr %0, i64 992
  store i64 -281470681743360, ptr %58, align 8
  br label %59

59:                                               ; preds = %57, %55
  ret void
}